target datalayout = "e-m:e-p270:32:32-p271:32:32-p272:64:64-i64:64-i128:128-f80:128-n8:16:32:64-S128"
target triple = "x86_64-unknown-linux-gnu"

%"struct.google::protobuf::MessageLite::ClassData" = type <{ ptr, i32, i8, [3 x i8] }>

; Function Attrs: mustprogress uwtable
define void @_ZN6google8protobuf11MessageLite25OnDemandRegisterArenaDtorEPNS0_5ArenaE(ptr noundef nonnull align 8 dereferenceable(16) %this, ptr noundef %arena) #4 align 2 {
entry:
  %this.addr = alloca ptr, align 8
  %arena.addr = alloca ptr, align 8
  %data = alloca ptr, align 8
  store ptr %this, ptr %this.addr, align 8
  store ptr %arena, ptr %arena.addr, align 8
  %this1 = load ptr, ptr %this.addr, align 8
  %0 = load ptr, ptr %arena.addr, align 8
  %cmp = icmp eq ptr %0, null
  br i1 %cmp, label %if.then, label %if.end

if.then:                                          ; preds = %entry
  br label %if.end5

if.end:                                           ; preds = %entry
  %vtable = load ptr, ptr %this1, align 8
  %vfn = getelementptr inbounds ptr, ptr %vtable, i64 8
  %1 = load ptr, ptr %vfn, align 8
  %call = call noundef ptr %1(ptr noundef nonnull align 8 dereferenceable(16) %this1)
  store ptr %call, ptr %data, align 8
  %2 = load ptr, ptr %data, align 8
  %on_demand_register_arena_dtor = getelementptr inbounds %"struct.google::protobuf::MessageLite::ClassData", ptr %2, i32 0, i32 0
  %3 = load ptr, ptr %on_demand_register_arena_dtor, align 8
  %cmp2 = icmp ne ptr %3, null
  br i1 %cmp2, label %if.then3, label %if.end5

if.then3:                                         ; preds = %if.end
  %4 = load ptr, ptr %data, align 8
  %on_demand_register_arena_dtor4 = getelementptr inbounds %"struct.google::protobuf::MessageLite::ClassData", ptr %4, i32 0, i32 0
  %5 = load ptr, ptr %on_demand_register_arena_dtor4, align 8
  %6 = load ptr, ptr %arena.addr, align 8
  call void %5(ptr noundef nonnull align 8 dereferenceable(16) %this1, ptr noundef nonnull align 8 dereferenceable(144) %6)
  br label %if.end5

if.end5:                                          ; preds = %if.then3, %if.end, %if.then
  ret void
}