; Function Attrs: mustprogress uwtable
define void @_ZN6google8protobuf11MessageLite25OnDemandRegisterArenaDtorEPNS0_5ArenaE(ptr noundef nonnull align 8 dereferenceable(16) %this, ptr noundef %arena) local_unnamed_addr #3 align 2 {
entry:
  %cmp = icmp eq ptr %arena, null
  br i1 %cmp, label %if.end5, label %if.end

if.end:                                           ; preds = %entry
  %vtable = load ptr, ptr %this, align 8
  %vfn = getelementptr inbounds i8, ptr %vtable, i64 64
  %0 = load ptr, ptr %vfn, align 8
  %call = tail call noundef ptr %0(ptr noundef nonnull align 8 dereferenceable(16) %this)
  %1 = load ptr, ptr %call, align 8
  %cmp2.not = icmp eq ptr %1, null
  br i1 %cmp2.not, label %if.end5, label %if.then3

if.then3:                                         ; preds = %if.end
  tail call void %1(ptr noundef nonnull align 8 dereferenceable(16) %this, ptr noundef nonnull align 8 dereferenceable(144) %arena)
  br label %if.end5

if.end5:                                          ; preds = %entry, %if.then3, %if.end
  ret void
}